; Function Attrs: nounwind uwtable
define dso_local void @tr2_list_env_vars_fl(ptr noundef %0, i32 noundef %1) local_unnamed_addr #0 {
  %3 = alloca %struct.key_value_info, align 8
  call void @llvm.lifetime.start.p0(i64 32, ptr nonnull %3) #8
  call void @llvm.memcpy.p0.p0.i64(ptr noundef nonnull align 8 dereferenceable(32) %3, ptr noundef nonnull align 8 dereferenceable(32) @__const.tr2_cfg_set_fl.kvi, i64 32, i1 false)
  call void @kvi_from_param(ptr noundef nonnull %3) #8
  %.b.i = load i1, ptr @tr2_cfg_env_vars_loaded, align 4
  br i1 %.b.i, label %4, label %6

4:                                                ; preds = %2
  %5 = load i32, ptr @tr2_cfg_env_vars_count, align 4, !tbaa !9
  br label %tr2_load_env_vars.exit

6:                                                ; preds = %2
  store i1 true, ptr @tr2_cfg_env_vars_loaded, align 4
  %7 = call ptr @tr2_sysenv_get(i32 noundef 1) #8
  %.not.i = icmp eq ptr %7, null
  br i1 %.not.i, label %10, label %8

8:                                                ; preds = %6
  %9 = load i8, ptr %7, align 1, !tbaa !17
  %.not19.i = icmp eq i8 %9, 0
  br i1 %.not19.i, label %10, label %12

10:                                               ; preds = %8, %6
  %11 = load i32, ptr @tr2_cfg_env_vars_count, align 4, !tbaa !9
  br label %tr2_load_env_vars.exit

12:                                               ; preds = %8
  %13 = call i64 @strlen(ptr noundef nonnull dereferenceable(1) %7) #9
  %14 = call ptr @strbuf_split_buf(ptr noundef nonnull %7, i64 noundef %13, i32 noundef 44, i32 noundef -1) #8
  store ptr %14, ptr @tr2_cfg_env_vars, align 8, !tbaa !4
  %15 = load ptr, ptr %14, align 8, !tbaa !18
  %.not2023.i = icmp eq ptr %15, null
  br i1 %.not2023.i, label %._crit_edge.i, label %.lr.ph.i

.lr.ph.i:                                         ; preds = %12, %strbuf_setlen.exit.i
  %16 = phi ptr [ %35, %strbuf_setlen.exit.i ], [ %15, %12 ]
  %.01524.i = phi ptr [ %34, %strbuf_setlen.exit.i ], [ %14, %12 ]
  %17 = getelementptr inbounds nuw i8, ptr %16, i64 8
  %18 = load i64, ptr %17, align 8, !tbaa !20
  %.not21.i = icmp eq i64 %18, 0
  br i1 %.not21.i, label %strbuf_setlen.exit.i, label %19

19:                                               ; preds = %.lr.ph.i
  %20 = getelementptr inbounds nuw i8, ptr %16, i64 16
  %21 = load ptr, ptr %20, align 8, !tbaa !23
  %22 = add i64 %18, -1
  %23 = getelementptr inbounds nuw i8, ptr %21, i64 %22
  %24 = load i8, ptr %23, align 1, !tbaa !17
  %25 = icmp eq i8 %24, 44
  br i1 %25, label %26, label %strbuf_setlen.exit.i

26:                                               ; preds = %19
  %27 = load i64, ptr %16, align 8, !tbaa !24
  %spec.select.i.i = call i64 @llvm.usub.sat.i64(i64 %27, i64 1)
  %28 = icmp ugt i64 %22, %spec.select.i.i
  br i1 %28, label %29, label %30

29:                                               ; preds = %26
  call void (ptr, i32, ptr, ...) @BUG_fl(ptr noundef nonnull @.str, i32 noundef 167, ptr noundef nonnull @.str.1) #10
  unreachable

30:                                               ; preds = %26
  store i64 %22, ptr %17, align 8, !tbaa !20
  %.not9.i.i = icmp eq ptr %21, @strbuf_slopbuf
  br i1 %.not9.i.i, label %strbuf_setlen.exit.i, label %31

31:                                               ; preds = %30
  store i8 0, ptr %23, align 1, !tbaa !17
  %.pre.i = load ptr, ptr %.01524.i, align 8, !tbaa !18
  br label %strbuf_setlen.exit.i

strbuf_setlen.exit.i:                             ; preds = %31, %30, %19, %.lr.ph.i
  %32 = phi ptr [ %.pre.i, %31 ], [ %16, %30 ], [ %16, %19 ], [ %16, %.lr.ph.i ]
  call void @strbuf_trim_trailing_newline(ptr noundef %32) #8
  %33 = load ptr, ptr %.01524.i, align 8, !tbaa !18
  call void @strbuf_trim(ptr noundef %33) #8
  %34 = getelementptr inbounds nuw i8, ptr %.01524.i, i64 8
  %35 = load ptr, ptr %34, align 8, !tbaa !18
  %.not20.i = icmp eq ptr %35, null
  br i1 %.not20.i, label %._crit_edge.loopexit.i, label %.lr.ph.i, !llvm.loop !31

._crit_edge.loopexit.i:                           ; preds = %strbuf_setlen.exit.i
  %.pre25.i = load ptr, ptr @tr2_cfg_env_vars, align 8, !tbaa !4
  br label %._crit_edge.i

._crit_edge.i:                                    ; preds = %._crit_edge.loopexit.i, %12
  %36 = phi ptr [ %14, %12 ], [ %.pre25.i, %._crit_edge.loopexit.i ]
  %.015.lcssa.i = phi ptr [ %14, %12 ], [ %34, %._crit_edge.loopexit.i ]
  %37 = ptrtoint ptr %.015.lcssa.i to i64
  %38 = ptrtoint ptr %36 to i64
  %39 = sub i64 %37, %38
  %40 = lshr exact i64 %39, 3
  %41 = trunc i64 %40 to i32
  store i32 %41, ptr @tr2_cfg_env_vars_count, align 4, !tbaa !9
  br label %tr2_load_env_vars.exit

tr2_load_env_vars.exit:                           ; preds = %4, %10, %._crit_edge.i
  %.0.i = phi i32 [ %5, %4 ], [ %41, %._crit_edge.i ], [ %11, %10 ]
  %42 = icmp slt i32 %.0.i, 1
  br i1 %42, label %.loopexit, label %43

43:                                               ; preds = %tr2_load_env_vars.exit
  %44 = load ptr, ptr @tr2_cfg_env_vars, align 8, !tbaa !4
  %45 = load ptr, ptr %44, align 8, !tbaa !18
  %.not13 = icmp eq ptr %45, null
  br i1 %.not13, label %.loopexit, label %.lr.ph

.lr.ph:                                           ; preds = %43, %53
  %46 = phi ptr [ %55, %53 ], [ %45, %43 ]
  %.014 = phi ptr [ %54, %53 ], [ %44, %43 ]
  %47 = getelementptr inbounds nuw i8, ptr %46, i64 16
  %48 = load ptr, ptr %47, align 8, !tbaa !23
  %49 = call ptr @getenv(ptr noundef %48) #8
  %.not11 = icmp eq ptr %49, null
  br i1 %.not11, label %53, label %50

50:                                               ; preds = %.lr.ph
  %51 = load i8, ptr %49, align 1, !tbaa !17
  %.not12 = icmp eq i8 %51, 0
  br i1 %.not12, label %53, label %52

52:                                               ; preds = %50
  call void @trace2_def_param_fl(ptr noundef %0, i32 noundef %1, ptr noundef %48, ptr noundef nonnull %49, ptr noundef nonnull %3) #8
  br label %53

53:                                               ; preds = %52, %50, %.lr.ph
  %54 = getelementptr inbounds nuw i8, ptr %.014, i64 8
  %55 = load ptr, ptr %54, align 8, !tbaa !18
  %.not = icmp eq ptr %55, null
  br i1 %.not, label %.loopexit, label %.lr.ph, !llvm.loop !32

.loopexit:                                        ; preds = %53, %43, %tr2_load_env_vars.exit
  call void @llvm.lifetime.end.p0(i64 32, ptr nonnull %3) #8
  ret void
}